target datalayout = "e-m:e-p270:32:32-p271:32:32-p272:64:64-i64:64-i128:128-f80:128-n8:16:32:64-S128"
target triple = "x86_64-unknown-linux-gnu"

%"class.zmq::mechanism_t" = type { ptr, %"struct.zmq::options_t", %"class.std::map", %"class.std::map", %"struct.zmq::blob_t", %"struct.zmq::blob_t" }
%"struct.zmq::options_t" = type { i32, i32, i64, i8, [256 x i8], i32, i32, i32, i32, i32, i32, i32, i32, i8, %"struct.zmq::atomic_value_t", i32, i32, i32, i32, i32, i32, i64, i32, i32, i8, i32, i8, i8, i8, i8, i8, %"class.std::__cxx11::basic_string", %"class.std::__cxx11::basic_string", %"class.std::__cxx11::basic_string", i32, i32, i32, i32, %"class.std::vector", %"class.std::set", %"class.std::set", %"class.std::set.6", i32, i32, %"class.std::__cxx11::basic_string", %"class.std::__cxx11::basic_string", %"class.std::__cxx11::basic_string", [32 x i8], [32 x i8], [32 x i8], %"class.std::__cxx11::basic_string", %"class.std::__cxx11::basic_string", i32, i32, i8, i32, i8, i32, i8, i16, i32, i32, i32, %"class.std::__cxx11::basic_string", i8, i8, i8, i32, i32, i8, i32, %"class.std::map", i32, %"class.std::__cxx11::basic_string", %"class.std::__cxx11::basic_string", %"class.std::__cxx11::basic_string", %"class.std::__cxx11::basic_string", i8, %"class.std::vector.21", i8, %"class.std::vector.21", i8, %"class.std::vector.21", i8, i32, i8, i32, i32, i32, i32, i32, i8, i32 }
%"struct.zmq::atomic_value_t" = type { %"struct.std::atomic" }
%"struct.std::atomic" = type { %"struct.std::__atomic_base" }
%"struct.std::__atomic_base" = type { i32 }
%"class.std::vector" = type { %"struct.std::_Vector_base" }
%"struct.std::_Vector_base" = type { %"struct.std::_Vector_base<zmq::tcp_address_mask_t, std::allocator<zmq::tcp_address_mask_t>>::_Vector_impl" }
%"struct.std::_Vector_base<zmq::tcp_address_mask_t, std::allocator<zmq::tcp_address_mask_t>>::_Vector_impl" = type { %"struct.std::_Vector_base<zmq::tcp_address_mask_t, std::allocator<zmq::tcp_address_mask_t>>::_Vector_impl_data" }
%"struct.std::_Vector_base<zmq::tcp_address_mask_t, std::allocator<zmq::tcp_address_mask_t>>::_Vector_impl_data" = type { ptr, ptr, ptr }
%"class.std::set" = type { %"class.std::_Rb_tree" }
%"class.std::_Rb_tree" = type { %"struct.std::_Rb_tree<unsigned int, unsigned int, std::_Identity<unsigned int>, std::less<unsigned int>>::_Rb_tree_impl" }
%"struct.std::_Rb_tree<unsigned int, unsigned int, std::_Identity<unsigned int>, std::less<unsigned int>>::_Rb_tree_impl" = type { %"struct.std::_Rb_tree_key_compare", %"struct.std::_Rb_tree_header" }
%"struct.std::_Rb_tree_key_compare" = type { %"struct.std::less" }
%"struct.std::less" = type { i8 }
%"struct.std::_Rb_tree_header" = type { %"struct.std::_Rb_tree_node_base", i64 }
%"struct.std::_Rb_tree_node_base" = type { i32, ptr, ptr, ptr }
%"class.std::set.6" = type { %"class.std::_Rb_tree.7" }
%"class.std::_Rb_tree.7" = type { %"struct.std::_Rb_tree<int, int, std::_Identity<int>, std::less<int>>::_Rb_tree_impl" }
%"struct.std::_Rb_tree<int, int, std::_Identity<int>, std::less<int>>::_Rb_tree_impl" = type { %"struct.std::_Rb_tree_key_compare.11", %"struct.std::_Rb_tree_header" }
%"struct.std::_Rb_tree_key_compare.11" = type { %"struct.std::less.12" }
%"struct.std::less.12" = type { i8 }
%"class.std::__cxx11::basic_string" = type { %"struct.std::__cxx11::basic_string<char>::_Alloc_hider", i64, %union.anon }
%"struct.std::__cxx11::basic_string<char>::_Alloc_hider" = type { ptr }
%union.anon = type { i64, [8 x i8] }
%"class.std::vector.21" = type { %"struct.std::_Vector_base.22" }
%"struct.std::_Vector_base.22" = type { %"struct.std::_Vector_base<unsigned char, std::allocator<unsigned char>>::_Vector_impl" }
%"struct.std::_Vector_base<unsigned char, std::allocator<unsigned char>>::_Vector_impl" = type { %"struct.std::_Vector_base<unsigned char, std::allocator<unsigned char>>::_Vector_impl_data" }
%"struct.std::_Vector_base<unsigned char, std::allocator<unsigned char>>::_Vector_impl_data" = type { ptr, ptr, ptr }
%"class.std::map" = type { %"class.std::_Rb_tree.14" }
%"class.std::_Rb_tree.14" = type { %"struct.std::_Rb_tree<std::__cxx11::basic_string<char>, std::pair<const std::__cxx11::basic_string<char>, std::__cxx11::basic_string<char>>, std::_Select1st<std::pair<const std::__cxx11::basic_string<char>, std::__cxx11::basic_string<char>>>, std::less<std::__cxx11::basic_string<char>>>::_Rb_tree_impl" }
%"struct.std::_Rb_tree<std::__cxx11::basic_string<char>, std::pair<const std::__cxx11::basic_string<char>, std::__cxx11::basic_string<char>>, std::_Select1st<std::pair<const std::__cxx11::basic_string<char>, std::__cxx11::basic_string<char>>>, std::less<std::__cxx11::basic_string<char>>>::_Rb_tree_impl" = type { %"struct.std::_Rb_tree_key_compare.18", %"struct.std::_Rb_tree_header" }
%"struct.std::_Rb_tree_key_compare.18" = type { %"struct.std::less.19" }
%"struct.std::less.19" = type { i8 }
%"struct.zmq::blob_t" = type <{ ptr, i64, i8, [7 x i8] }>

@stderr = external global ptr, align 8
@.str = private unnamed_addr constant [12 x i8] c"%s (%s:%d)\0A\00", align 1
@.str.1 = private unnamed_addr constant [112 x i8] c"generated/home/dtcxzyw/WorkSpace/Projects/compilers/llvm-opt-benchmark/bench/libzmq/libzmq/src/plain_client.cpp\00", align 1
@.str.2 = private unnamed_addr constant [30 x i8] c"Assertion failed: %s (%s:%d)\0A\00", align 1
@.str.3 = private unnamed_addr constant [32 x i8] c"username.length () <= UCHAR_MAX\00", align 1
@.str.4 = private unnamed_addr constant [32 x i8] c"password.length () <= UCHAR_MAX\00", align 1
@_ZN3zmqL12hello_prefixE = internal constant [7 x i8] c"\05HELLO\00", align 1

; Function Attrs: mustprogress uwtable
define void @_ZNK3zmq14plain_client_t13produce_helloEPNS_5msg_tE(ptr noundef nonnull align 8 dereferenceable(1504) %this, ptr noundef %msg_) #0 align 2 personality ptr @__gxx_personality_v0 {
entry:
  %this.addr = alloca ptr, align 8
  %msg_.addr = alloca ptr, align 8
  %username = alloca %"class.std::__cxx11::basic_string", align 8
  %exn.slot = alloca ptr, align 8
  %ehselector.slot = alloca i32, align 4
  %password = alloca %"class.std::__cxx11::basic_string", align 8
  %command_size = alloca i64, align 8
  %rc = alloca i32, align 4
  %errstr = alloca ptr, align 8
  %ptr = alloca ptr, align 8
  store ptr %this, ptr %this.addr, align 8
  store ptr %msg_, ptr %msg_.addr, align 8
  %this1 = load ptr, ptr %this.addr, align 8
  %options = getelementptr inbounds %"class.zmq::mechanism_t", ptr %this1, i32 0, i32 1
  %plain_username = getelementptr inbounds %"struct.zmq::options_t", ptr %options, i32 0, i32 45
  call void @_ZNSt7__cxx1112basic_stringIcSt11char_traitsIcESaIcEEC1ERKS4_(ptr noundef nonnull align 8 dereferenceable(32) %username, ptr noundef nonnull align 8 dereferenceable(32) %plain_username)
  br label %do.body

do.body:                                          ; preds = %entry
  %call = call noundef i64 @_ZNKSt7__cxx1112basic_stringIcSt11char_traitsIcESaIcEE6lengthEv(ptr noundef nonnull align 8 dereferenceable(32) %username) #8
  %cmp = icmp ule i64 %call, 255
  %lnot = xor i1 %cmp, true
  br i1 %lnot, label %if.then, label %if.end

if.then:                                          ; preds = %do.body
  %0 = load ptr, ptr @stderr, align 8
  %call2 = invoke i32 (ptr, ptr, ...) @fprintf(ptr noundef %0, ptr noundef @.str.2, ptr noundef @.str.3, ptr noundef @.str.1, i32 noundef 93)
          to label %invoke.cont unwind label %lpad

invoke.cont:                                      ; preds = %if.then
  %1 = load ptr, ptr @stderr, align 8
  %call4 = invoke i32 @fflush(ptr noundef %1)
          to label %invoke.cont3 unwind label %lpad

invoke.cont3:                                     ; preds = %invoke.cont
  invoke void @_ZN3zmq9zmq_abortEPKc(ptr noundef @.str.3)
          to label %invoke.cont5 unwind label %lpad

invoke.cont5:                                     ; preds = %invoke.cont3
  br label %if.end

lpad:                                             ; preds = %do.end, %invoke.cont3, %invoke.cont, %if.then
  %2 = landingpad { ptr, i32 }
          cleanup
  %3 = extractvalue { ptr, i32 } %2, 0
  store ptr %3, ptr %exn.slot, align 8
  %4 = extractvalue { ptr, i32 } %2, 1
  store i32 %4, ptr %ehselector.slot, align 4
  br label %ehcleanup

if.end:                                           ; preds = %invoke.cont5, %do.body
  br label %do.cond

do.cond:                                          ; preds = %if.end
  br label %do.end

do.end:                                           ; preds = %do.cond
  %options6 = getelementptr inbounds %"class.zmq::mechanism_t", ptr %this1, i32 0, i32 1
  %plain_password = getelementptr inbounds %"struct.zmq::options_t", ptr %options6, i32 0, i32 46
  invoke void @_ZNSt7__cxx1112basic_stringIcSt11char_traitsIcESaIcEEC1ERKS4_(ptr noundef nonnull align 8 dereferenceable(32) %password, ptr noundef nonnull align 8 dereferenceable(32) %plain_password)
          to label %invoke.cont7 unwind label %lpad

invoke.cont7:                                     ; preds = %do.end
  br label %do.body8

do.body8:                                         ; preds = %invoke.cont7
  %call9 = call noundef i64 @_ZNKSt7__cxx1112basic_stringIcSt11char_traitsIcESaIcEE6lengthEv(ptr noundef nonnull align 8 dereferenceable(32) %password) #8
  %cmp10 = icmp ule i64 %call9, 255
  %lnot11 = xor i1 %cmp10, true
  br i1 %lnot11, label %if.then12, label %if.end19

if.then12:                                        ; preds = %do.body8
  %5 = load ptr, ptr @stderr, align 8
  %call15 = invoke i32 (ptr, ptr, ...) @fprintf(ptr noundef %5, ptr noundef @.str.2, ptr noundef @.str.4, ptr noundef @.str.1, i32 noundef 96)
          to label %invoke.cont14 unwind label %lpad13

invoke.cont14:                                    ; preds = %if.then12
  %6 = load ptr, ptr @stderr, align 8
  %call17 = invoke i32 @fflush(ptr noundef %6)
          to label %invoke.cont16 unwind label %lpad13

invoke.cont16:                                    ; preds = %invoke.cont14
  invoke void @_ZN3zmq9zmq_abortEPKc(ptr noundef @.str.4)
          to label %invoke.cont18 unwind label %lpad13

invoke.cont18:                                    ; preds = %invoke.cont16
  br label %if.end19

lpad13:                                           ; preds = %do.end41, %invoke.cont36, %invoke.cont34, %if.then31, %do.end21, %invoke.cont16, %invoke.cont14, %if.then12
  %7 = landingpad { ptr, i32 }
          cleanup
  %8 = extractvalue { ptr, i32 } %7, 0
  store ptr %8, ptr %exn.slot, align 8
  %9 = extractvalue { ptr, i32 } %7, 1
  store i32 %9, ptr %ehselector.slot, align 4
  call void @_ZNSt7__cxx1112basic_stringIcSt11char_traitsIcESaIcEED1Ev(ptr noundef nonnull align 8 dereferenceable(32) %password) #8
  br label %ehcleanup

if.end19:                                         ; preds = %invoke.cont18, %do.body8
  br label %do.cond20

do.cond20:                                        ; preds = %if.end19
  br label %do.end21

do.end21:                                         ; preds = %do.cond20
  %call22 = call noundef i64 @_ZNKSt7__cxx1112basic_stringIcSt11char_traitsIcESaIcEE6lengthEv(ptr noundef nonnull align 8 dereferenceable(32) %username) #8
  %add = add i64 7, %call22
  %add23 = add i64 %add, 1
  %call24 = call noundef i64 @_ZNKSt7__cxx1112basic_stringIcSt11char_traitsIcESaIcEE6lengthEv(ptr noundef nonnull align 8 dereferenceable(32) %password) #8
  %add25 = add i64 %add23, %call24
  store i64 %add25, ptr %command_size, align 8
  %10 = load ptr, ptr %msg_.addr, align 8
  %11 = load i64, ptr %command_size, align 8
  %call27 = invoke noundef i32 @_ZN3zmq5msg_t9init_sizeEm(ptr noundef nonnull align 8 dereferenceable(64) %10, i64 noundef %11)
          to label %invoke.cont26 unwind label %lpad13

invoke.cont26:                                    ; preds = %do.end21
  store i32 %call27, ptr %rc, align 4
  br label %do.body28

do.body28:                                        ; preds = %invoke.cont26
  %12 = load i32, ptr %rc, align 4
  %cmp29 = icmp eq i32 %12, 0
  %lnot30 = xor i1 %cmp29, true
  br i1 %lnot30, label %if.then31, label %if.end39

if.then31:                                        ; preds = %do.body28
  %call32 = call ptr @__errno_location() #10
  %13 = load i32, ptr %call32, align 4
  %call33 = call ptr @strerror(i32 noundef %13) #8
  store ptr %call33, ptr %errstr, align 8
  %14 = load ptr, ptr @stderr, align 8
  %15 = load ptr, ptr %errstr, align 8
  %call35 = invoke i32 (ptr, ptr, ...) @fprintf(ptr noundef %14, ptr noundef @.str, ptr noundef %15, ptr noundef @.str.1, i32 noundef 103)
          to label %invoke.cont34 unwind label %lpad13

invoke.cont34:                                    ; preds = %if.then31
  %16 = load ptr, ptr @stderr, align 8
  %call37 = invoke i32 @fflush(ptr noundef %16)
          to label %invoke.cont36 unwind label %lpad13

invoke.cont36:                                    ; preds = %invoke.cont34
  %17 = load ptr, ptr %errstr, align 8
  invoke void @_ZN3zmq9zmq_abortEPKc(ptr noundef %17)
          to label %invoke.cont38 unwind label %lpad13

invoke.cont38:                                    ; preds = %invoke.cont36
  br label %if.end39

if.end39:                                         ; preds = %invoke.cont38, %do.body28
  br label %do.cond40

do.cond40:                                        ; preds = %if.end39
  br label %do.end41

do.end41:                                         ; preds = %do.cond40
  %18 = load ptr, ptr %msg_.addr, align 8
  %call43 = invoke noundef ptr @_ZN3zmq5msg_t4dataEv(ptr noundef nonnull align 8 dereferenceable(64) %18)
          to label %invoke.cont42 unwind label %lpad13

invoke.cont42:                                    ; preds = %do.end41
  store ptr %call43, ptr %ptr, align 8
  %19 = load ptr, ptr %ptr, align 8
  call void @llvm.memcpy.p0.p0.i64(ptr align 1 %19, ptr align 1 @_ZN3zmqL12hello_prefixE, i64 6, i1 false)
  %20 = load ptr, ptr %ptr, align 8
  %add.ptr = getelementptr inbounds i8, ptr %20, i64 6
  store ptr %add.ptr, ptr %ptr, align 8
  %call44 = call noundef i64 @_ZNKSt7__cxx1112basic_stringIcSt11char_traitsIcESaIcEE6lengthEv(ptr noundef nonnull align 8 dereferenceable(32) %username) #8
  %conv = trunc i64 %call44 to i8
  %21 = load ptr, ptr %ptr, align 8
  %incdec.ptr = getelementptr inbounds i8, ptr %21, i32 1
  store ptr %incdec.ptr, ptr %ptr, align 8
  store i8 %conv, ptr %21, align 1
  %22 = load ptr, ptr %ptr, align 8
  %call45 = call noundef ptr @_ZNKSt7__cxx1112basic_stringIcSt11char_traitsIcESaIcEE5c_strEv(ptr noundef nonnull align 8 dereferenceable(32) %username) #8
  %call46 = call noundef i64 @_ZNKSt7__cxx1112basic_stringIcSt11char_traitsIcESaIcEE6lengthEv(ptr noundef nonnull align 8 dereferenceable(32) %username) #8
  call void @llvm.memcpy.p0.p0.i64(ptr align 1 %22, ptr align 1 %call45, i64 %call46, i1 false)
  %call47 = call noundef i64 @_ZNKSt7__cxx1112basic_stringIcSt11char_traitsIcESaIcEE6lengthEv(ptr noundef nonnull align 8 dereferenceable(32) %username) #8
  %23 = load ptr, ptr %ptr, align 8
  %add.ptr48 = getelementptr inbounds i8, ptr %23, i64 %call47
  store ptr %add.ptr48, ptr %ptr, align 8
  %call49 = call noundef i64 @_ZNKSt7__cxx1112basic_stringIcSt11char_traitsIcESaIcEE6lengthEv(ptr noundef nonnull align 8 dereferenceable(32) %password) #8
  %conv50 = trunc i64 %call49 to i8
  %24 = load ptr, ptr %ptr, align 8
  %incdec.ptr51 = getelementptr inbounds i8, ptr %24, i32 1
  store ptr %incdec.ptr51, ptr %ptr, align 8
  store i8 %conv50, ptr %24, align 1
  %25 = load ptr, ptr %ptr, align 8
  %call52 = call noundef ptr @_ZNKSt7__cxx1112basic_stringIcSt11char_traitsIcESaIcEE5c_strEv(ptr noundef nonnull align 8 dereferenceable(32) %password) #8
  %call53 = call noundef i64 @_ZNKSt7__cxx1112basic_stringIcSt11char_traitsIcESaIcEE6lengthEv(ptr noundef nonnull align 8 dereferenceable(32) %password) #8
  call void @llvm.memcpy.p0.p0.i64(ptr align 1 %25, ptr align 1 %call52, i64 %call53, i1 false)
  call void @_ZNSt7__cxx1112basic_stringIcSt11char_traitsIcESaIcEED1Ev(ptr noundef nonnull align 8 dereferenceable(32) %password) #8
  call void @_ZNSt7__cxx1112basic_stringIcSt11char_traitsIcESaIcEED1Ev(ptr noundef nonnull align 8 dereferenceable(32) %username) #8
  ret void

ehcleanup:                                        ; preds = %lpad13, %lpad
  call void @_ZNSt7__cxx1112basic_stringIcSt11char_traitsIcESaIcEED1Ev(ptr noundef nonnull align 8 dereferenceable(32) %username) #8
  br label %eh.resume

eh.resume:                                        ; preds = %ehcleanup
  %exn = load ptr, ptr %exn.slot, align 8
  %sel = load i32, ptr %ehselector.slot, align 4
  %lpad.val = insertvalue { ptr, i32 } poison, ptr %exn, 0
  %lpad.val54 = insertvalue { ptr, i32 } %lpad.val, i32 %sel, 1
  resume { ptr, i32 } %lpad.val54
}