; Function Attrs: mustprogress uwtable
define void @_ZNK3zmq14plain_client_t13produce_helloEPNS_5msg_tE(ptr noundef nonnull align 8 dereferenceable(1504) %this, ptr noundef %msg_) local_unnamed_addr #0 align 2 personality ptr @__gxx_personality_v0 {
entry:
  %username = alloca %"class.std::__cxx11::basic_string", align 8
  %password = alloca %"class.std::__cxx11::basic_string", align 8
  %plain_username = getelementptr inbounds i8, ptr %this, i64 704
  call void @_ZNSt7__cxx1112basic_stringIcSt11char_traitsIcESaIcEEC1ERKS4_(ptr noundef nonnull align 8 dereferenceable(32) %username, ptr noundef nonnull align 8 dereferenceable(32) %plain_username)
  %call = call noundef i64 @_ZNKSt7__cxx1112basic_stringIcSt11char_traitsIcESaIcEE6lengthEv(ptr noundef nonnull align 8 dereferenceable(32) %username) #10
  %cmp = icmp ugt i64 %call, 255
  br i1 %cmp, label %if.then, label %do.end

if.then:                                          ; preds = %entry
  %0 = load ptr, ptr @stderr, align 8
  %call2 = call i32 (ptr, ptr, ...) @fprintf(ptr noundef %0, ptr noundef nonnull @.str.2, ptr noundef nonnull @.str.3, ptr noundef nonnull @.str.1, i32 noundef 93) #13
  %1 = load ptr, ptr @stderr, align 8
  %call4 = call i32 @fflush(ptr noundef %1)
  invoke void @_ZN3zmq9zmq_abortEPKc(ptr noundef nonnull @.str.3)
          to label %do.end unwind label %lpad

lpad:                                             ; preds = %do.end, %if.then
  %2 = landingpad { ptr, i32 }
          cleanup
  br label %ehcleanup

do.end:                                           ; preds = %if.then, %entry
  %plain_password = getelementptr inbounds i8, ptr %this, i64 736
  invoke void @_ZNSt7__cxx1112basic_stringIcSt11char_traitsIcESaIcEEC1ERKS4_(ptr noundef nonnull align 8 dereferenceable(32) %password, ptr noundef nonnull align 8 dereferenceable(32) %plain_password)
          to label %do.body8 unwind label %lpad

do.body8:                                         ; preds = %do.end
  %call9 = call noundef i64 @_ZNKSt7__cxx1112basic_stringIcSt11char_traitsIcESaIcEE6lengthEv(ptr noundef nonnull align 8 dereferenceable(32) %password) #10
  %cmp10 = icmp ugt i64 %call9, 255
  br i1 %cmp10, label %if.then12, label %do.end21

if.then12:                                        ; preds = %do.body8
  %3 = load ptr, ptr @stderr, align 8
  %call15 = call i32 (ptr, ptr, ...) @fprintf(ptr noundef %3, ptr noundef nonnull @.str.2, ptr noundef nonnull @.str.4, ptr noundef nonnull @.str.1, i32 noundef 96) #13
  %4 = load ptr, ptr @stderr, align 8
  %call17 = call i32 @fflush(ptr noundef %4)
  invoke void @_ZN3zmq9zmq_abortEPKc(ptr noundef nonnull @.str.4)
          to label %do.end21 unwind label %lpad13

lpad13:                                           ; preds = %do.end41, %if.then31, %do.end21, %if.then12
  %5 = landingpad { ptr, i32 }
          cleanup
  call void @_ZNSt7__cxx1112basic_stringIcSt11char_traitsIcESaIcEED1Ev(ptr noundef nonnull align 8 dereferenceable(32) %password) #10
  br label %ehcleanup

do.end21:                                         ; preds = %if.then12, %do.body8
  %call22 = call noundef i64 @_ZNKSt7__cxx1112basic_stringIcSt11char_traitsIcESaIcEE6lengthEv(ptr noundef nonnull align 8 dereferenceable(32) %username) #10
  %add23 = add i64 %call22, 8
  %call24 = call noundef i64 @_ZNKSt7__cxx1112basic_stringIcSt11char_traitsIcESaIcEE6lengthEv(ptr noundef nonnull align 8 dereferenceable(32) %password) #10
  %add25 = add i64 %add23, %call24
  %call27 = invoke noundef i32 @_ZN3zmq5msg_t9init_sizeEm(ptr noundef nonnull align 8 dereferenceable(64) %msg_, i64 noundef %add25)
          to label %invoke.cont26 unwind label %lpad13

invoke.cont26:                                    ; preds = %do.end21
  %cmp29.not = icmp eq i32 %call27, 0
  br i1 %cmp29.not, label %do.end41, label %if.then31

if.then31:                                        ; preds = %invoke.cont26
  %call32 = tail call ptr @__errno_location() #12
  %6 = load i32, ptr %call32, align 4
  %call33 = call ptr @strerror(i32 noundef %6) #10
  %7 = load ptr, ptr @stderr, align 8
  %call35 = call i32 (ptr, ptr, ...) @fprintf(ptr noundef %7, ptr noundef nonnull @.str, ptr noundef %call33, ptr noundef nonnull @.str.1, i32 noundef 103) #13
  %8 = load ptr, ptr @stderr, align 8
  %call37 = call i32 @fflush(ptr noundef %8)
  invoke void @_ZN3zmq9zmq_abortEPKc(ptr noundef %call33)
          to label %do.end41 unwind label %lpad13

do.end41:                                         ; preds = %if.then31, %invoke.cont26
  %call43 = invoke noundef ptr @_ZN3zmq5msg_t4dataEv(ptr noundef nonnull align 8 dereferenceable(64) %msg_)
          to label %invoke.cont42 unwind label %lpad13

invoke.cont42:                                    ; preds = %do.end41
  call void @llvm.memcpy.p0.p0.i64(ptr noundef nonnull align 1 dereferenceable(6) %call43, ptr noundef nonnull align 1 dereferenceable(6) @_ZN3zmqL12hello_prefixE, i64 6, i1 false)
  %add.ptr = getelementptr inbounds i8, ptr %call43, i64 6
  %call44 = call noundef i64 @_ZNKSt7__cxx1112basic_stringIcSt11char_traitsIcESaIcEE6lengthEv(ptr noundef nonnull align 8 dereferenceable(32) %username) #10
  %conv = trunc i64 %call44 to i8
  %incdec.ptr = getelementptr inbounds i8, ptr %call43, i64 7
  store i8 %conv, ptr %add.ptr, align 1
  %call45 = call noundef ptr @_ZNKSt7__cxx1112basic_stringIcSt11char_traitsIcESaIcEE5c_strEv(ptr noundef nonnull align 8 dereferenceable(32) %username) #10
  %call46 = call noundef i64 @_ZNKSt7__cxx1112basic_stringIcSt11char_traitsIcESaIcEE6lengthEv(ptr noundef nonnull align 8 dereferenceable(32) %username) #10
  call void @llvm.memcpy.p0.p0.i64(ptr nonnull align 1 %incdec.ptr, ptr align 1 %call45, i64 %call46, i1 false)
  %call47 = call noundef i64 @_ZNKSt7__cxx1112basic_stringIcSt11char_traitsIcESaIcEE6lengthEv(ptr noundef nonnull align 8 dereferenceable(32) %username) #10
  %add.ptr48 = getelementptr inbounds i8, ptr %incdec.ptr, i64 %call47
  %call49 = call noundef i64 @_ZNKSt7__cxx1112basic_stringIcSt11char_traitsIcESaIcEE6lengthEv(ptr noundef nonnull align 8 dereferenceable(32) %password) #10
  %conv50 = trunc i64 %call49 to i8
  %incdec.ptr51 = getelementptr inbounds i8, ptr %add.ptr48, i64 1
  store i8 %conv50, ptr %add.ptr48, align 1
  %call52 = call noundef ptr @_ZNKSt7__cxx1112basic_stringIcSt11char_traitsIcESaIcEE5c_strEv(ptr noundef nonnull align 8 dereferenceable(32) %password) #10
  %call53 = call noundef i64 @_ZNKSt7__cxx1112basic_stringIcSt11char_traitsIcESaIcEE6lengthEv(ptr noundef nonnull align 8 dereferenceable(32) %password) #10
  call void @llvm.memcpy.p0.p0.i64(ptr nonnull align 1 %incdec.ptr51, ptr align 1 %call52, i64 %call53, i1 false)
  call void @_ZNSt7__cxx1112basic_stringIcSt11char_traitsIcESaIcEED1Ev(ptr noundef nonnull align 8 dereferenceable(32) %password) #10
  call void @_ZNSt7__cxx1112basic_stringIcSt11char_traitsIcESaIcEED1Ev(ptr noundef nonnull align 8 dereferenceable(32) %username) #10
  ret void

ehcleanup:                                        ; preds = %lpad13, %lpad
  %.pn = phi { ptr, i32 } [ %5, %lpad13 ], [ %2, %lpad ]
  call void @_ZNSt7__cxx1112basic_stringIcSt11char_traitsIcESaIcEED1Ev(ptr noundef nonnull align 8 dereferenceable(32) %username) #10
  resume { ptr, i32 } %.pn
}